target datalayout = "e-m:e-p270:32:32-p271:32:32-p272:64:64-i64:64-i128:128-f80:128-n8:16:32:64-S128"
target triple = "x86_64-pc-linux-gnu"

%struct.WebPDecParams = type { ptr, ptr, ptr, ptr, i32, ptr, ptr, ptr, ptr, ptr, ptr, ptr, ptr, ptr }
%struct.WebPDecBuffer = type { i32, i32, i32, i32, %union.anon, [4 x i32], ptr }
%union.anon = type { %struct.WebPYUVABuffer }
%struct.WebPYUVABuffer = type { ptr, ptr, ptr, ptr, i32, i32, i32, i32, i64, i64, i64, i64 }
%struct.WebPRGBABuffer = type { ptr, i32, i64 }
%struct.WebPBitstreamFeatures = type { i32, i32, i32, i32, i32, [5 x i32] }

; Function Attrs: nounwind uwtable
define internal void @DefaultFeatures(ptr noundef %0) #0 {
  %2 = alloca ptr, align 8
  store ptr %0, ptr %2, align 8, !tbaa !90
  %3 = load ptr, ptr %2, align 8, !tbaa !90
  call void @llvm.memset.p0.i64(ptr align 4 %3, i8 0, i64 40, i1 false)
  ret void
}

; Function Attrs: nounwind uwtable
define internal i32 @GetFeatures(ptr noundef %0, i64 noundef %1, ptr noundef %2) #0 {
  %4 = alloca i32, align 4
  %5 = alloca ptr, align 8
  %6 = alloca i64, align 8
  %7 = alloca ptr, align 8
  store ptr %0, ptr %5, align 8, !tbaa !14
  store i64 %1, ptr %6, align 8, !tbaa !15
  store ptr %2, ptr %7, align 8, !tbaa !90
  %8 = load ptr, ptr %7, align 8, !tbaa !90
  %9 = icmp eq ptr %8, null
  br i1 %9, label %13, label %10

10:                                               ; preds = %3
  %11 = load ptr, ptr %5, align 8, !tbaa !14
  %12 = icmp eq ptr %11, null
  br i1 %12, label %13, label %14

13:                                               ; preds = %10, %3
  store i32 2, ptr %4, align 4
  br label %29

14:                                               ; preds = %10
  %15 = load ptr, ptr %7, align 8, !tbaa !90
  call void @DefaultFeatures(ptr noundef %15)
  %16 = load ptr, ptr %5, align 8, !tbaa !14
  %17 = load i64, ptr %6, align 8, !tbaa !15
  %18 = load ptr, ptr %7, align 8, !tbaa !90
  %19 = getelementptr inbounds nuw %struct.WebPBitstreamFeatures, ptr %18, i32 0, i32 0
  %20 = load ptr, ptr %7, align 8, !tbaa !90
  %21 = getelementptr inbounds nuw %struct.WebPBitstreamFeatures, ptr %20, i32 0, i32 1
  %22 = load ptr, ptr %7, align 8, !tbaa !90
  %23 = getelementptr inbounds nuw %struct.WebPBitstreamFeatures, ptr %22, i32 0, i32 2
  %24 = load ptr, ptr %7, align 8, !tbaa !90
  %25 = getelementptr inbounds nuw %struct.WebPBitstreamFeatures, ptr %24, i32 0, i32 3
  %26 = load ptr, ptr %7, align 8, !tbaa !90
  %27 = getelementptr inbounds nuw %struct.WebPBitstreamFeatures, ptr %26, i32 0, i32 4
  %28 = call i32 @ParseHeadersInternal(ptr noundef %16, i64 noundef %17, ptr noundef %19, ptr noundef %21, ptr noundef %23, ptr noundef %25, ptr noundef %27, ptr noundef null)
  store i32 %28, ptr %4, align 4
  br label %29

29:                                               ; preds = %14, %13
  %30 = load i32, ptr %4, align 4
  ret i32 %30
}

; Function Attrs: inlinehint nounwind uwtable
define internal i32 @WebPIsRGBMode(i32 noundef %0) #3 {
  %2 = alloca i32, align 4
  store i32 %0, ptr %2, align 4, !tbaa !7
  %3 = load i32, ptr %2, align 4, !tbaa !7
  %4 = icmp ult i32 %3, 11
  %5 = zext i1 %4 to i32
  ret i32 %5
}

; Function Attrs: nounwind uwtable
define i32 @WebPGetInfo(ptr noundef %0, i64 noundef %1, ptr noundef %2, ptr noundef %3) #0 {
  %5 = alloca i32, align 4
  %6 = alloca ptr, align 8
  %7 = alloca i64, align 8
  %8 = alloca ptr, align 8
  %9 = alloca ptr, align 8
  %10 = alloca %struct.WebPBitstreamFeatures, align 4
  %11 = alloca i32, align 4
  store ptr %0, ptr %6, align 8, !tbaa !14
  store i64 %1, ptr %7, align 8, !tbaa !15
  store ptr %2, ptr %8, align 8, !tbaa !16
  store ptr %3, ptr %9, align 8, !tbaa !16
  call void @llvm.lifetime.start.p0(i64 40, ptr %10) #7
  %12 = load ptr, ptr %6, align 8, !tbaa !14
  %13 = load i64, ptr %7, align 8, !tbaa !15
  %14 = call i32 @GetFeatures(ptr noundef %12, i64 noundef %13, ptr noundef %10)
  %15 = icmp ne i32 %14, 0
  br i1 %15, label %16, label %17

16:                                               ; preds = %4
  store i32 0, ptr %5, align 4
  store i32 1, ptr %11, align 4
  br label %32

17:                                               ; preds = %4
  %18 = load ptr, ptr %8, align 8, !tbaa !16
  %19 = icmp ne ptr %18, null
  br i1 %19, label %20, label %24

20:                                               ; preds = %17
  %21 = getelementptr inbounds nuw %struct.WebPBitstreamFeatures, ptr %10, i32 0, i32 0
  %22 = load i32, ptr %21, align 4, !tbaa !87
  %23 = load ptr, ptr %8, align 8, !tbaa !16
  store i32 %22, ptr %23, align 4, !tbaa !7
  br label %24

24:                                               ; preds = %20, %17
  %25 = load ptr, ptr %9, align 8, !tbaa !16
  %26 = icmp ne ptr %25, null
  br i1 %26, label %27, label %31

27:                                               ; preds = %24
  %28 = getelementptr inbounds nuw %struct.WebPBitstreamFeatures, ptr %10, i32 0, i32 1
  %29 = load i32, ptr %28, align 4, !tbaa !89
  %30 = load ptr, ptr %9, align 8, !tbaa !16
  store i32 %29, ptr %30, align 4, !tbaa !7
  br label %31

31:                                               ; preds = %27, %24
  store i32 1, ptr %5, align 4
  store i32 1, ptr %11, align 4
  br label %32

32:                                               ; preds = %31, %16
  call void @llvm.lifetime.end.p0(i64 40, ptr %10) #7
  %33 = load i32, ptr %5, align 4
  ret i32 %33
}

; Function Attrs: nounwind uwtable
define hidden void @WebPResetDecParams(ptr noundef %0) #0 {
  %2 = alloca ptr, align 8
  store ptr %0, ptr %2, align 8, !tbaa !25
  %3 = load ptr, ptr %2, align 8, !tbaa !25
  %4 = icmp ne ptr %3, null
  br i1 %4, label %5, label %7

5:                                                ; preds = %1
  %6 = load ptr, ptr %2, align 8, !tbaa !25
  call void @llvm.memset.p0.i64(ptr align 8 %6, i8 0, i64 112, i1 false)
  br label %7

7:                                                ; preds = %5, %1
  ret void
}

; Function Attrs: inlinehint nounwind uwtable
define internal i32 @WebPInitDecBuffer(ptr noundef %0) #3 {
  %2 = alloca ptr, align 8
  store ptr %0, ptr %2, align 8, !tbaa !36
  %3 = load ptr, ptr %2, align 8, !tbaa !36
  %4 = call i32 @WebPInitDecBufferInternal(ptr noundef %3, i32 noundef 528)
  ret i32 %4
}

; Function Attrs: nounwind uwtable
define internal ptr @Decode(i32 noundef %0, ptr noundef %1, i64 noundef %2, ptr noundef %3, ptr noundef %4, ptr noundef %5) #0 {
  %7 = alloca ptr, align 8
  %8 = alloca i32, align 4
  %9 = alloca ptr, align 8
  %10 = alloca i64, align 8
  %11 = alloca ptr, align 8
  %12 = alloca ptr, align 8
  %13 = alloca ptr, align 8
  %14 = alloca %struct.WebPDecParams, align 8
  %15 = alloca %struct.WebPDecBuffer, align 8
  %16 = alloca i32, align 4
  store i32 %0, ptr %8, align 4, !tbaa !7
  store ptr %1, ptr %9, align 8, !tbaa !14
  store i64 %2, ptr %10, align 8, !tbaa !15
  store ptr %3, ptr %11, align 8, !tbaa !16
  store ptr %4, ptr %12, align 8, !tbaa !16
  store ptr %5, ptr %13, align 8, !tbaa !36
  call void @llvm.lifetime.start.p0(i64 112, ptr %14) #7
  call void @llvm.lifetime.start.p0(i64 120, ptr %15) #7
  %17 = call i32 @WebPInitDecBuffer(ptr noundef %15)
  %18 = icmp ne i32 %17, 0
  br i1 %18, label %20, label %19

19:                                               ; preds = %6
  store ptr null, ptr %7, align 8
  store i32 1, ptr %16, align 4
  br label %70

20:                                               ; preds = %6
  call void @WebPResetDecParams(ptr noundef %14)
  %21 = getelementptr inbounds nuw %struct.WebPDecParams, ptr %14, i32 0, i32 0
  store ptr %15, ptr %21, align 8, !tbaa !27
  %22 = load i32, ptr %8, align 4, !tbaa !7
  %23 = getelementptr inbounds nuw %struct.WebPDecBuffer, ptr %15, i32 0, i32 0
  store i32 %22, ptr %23, align 8, !tbaa !32
  %24 = load ptr, ptr %9, align 8, !tbaa !14
  %25 = load i64, ptr %10, align 8, !tbaa !15
  %26 = getelementptr inbounds nuw %struct.WebPDecBuffer, ptr %15, i32 0, i32 1
  %27 = getelementptr inbounds nuw %struct.WebPDecBuffer, ptr %15, i32 0, i32 2
  %28 = call i32 @WebPGetInfo(ptr noundef %24, i64 noundef %25, ptr noundef %26, ptr noundef %27)
  %29 = icmp ne i32 %28, 0
  br i1 %29, label %31, label %30

30:                                               ; preds = %20
  store ptr null, ptr %7, align 8
  store i32 1, ptr %16, align 4
  br label %70

31:                                               ; preds = %20
  %32 = load ptr, ptr %11, align 8, !tbaa !16
  %33 = icmp ne ptr %32, null
  br i1 %33, label %34, label %38

34:                                               ; preds = %31
  %35 = getelementptr inbounds nuw %struct.WebPDecBuffer, ptr %15, i32 0, i32 1
  %36 = load i32, ptr %35, align 4, !tbaa !76
  %37 = load ptr, ptr %11, align 8, !tbaa !16
  store i32 %36, ptr %37, align 4, !tbaa !7
  br label %38

38:                                               ; preds = %34, %31
  %39 = load ptr, ptr %12, align 8, !tbaa !16
  %40 = icmp ne ptr %39, null
  br i1 %40, label %41, label %45

41:                                               ; preds = %38
  %42 = getelementptr inbounds nuw %struct.WebPDecBuffer, ptr %15, i32 0, i32 2
  %43 = load i32, ptr %42, align 8, !tbaa !77
  %44 = load ptr, ptr %12, align 8, !tbaa !16
  store i32 %43, ptr %44, align 4, !tbaa !7
  br label %45

45:                                               ; preds = %41, %38
  %46 = load ptr, ptr %9, align 8, !tbaa !14
  %47 = load i64, ptr %10, align 8, !tbaa !15
  %48 = call i32 @DecodeInto(ptr noundef %46, i64 noundef %47, ptr noundef %14)
  %49 = icmp ne i32 %48, 0
  br i1 %49, label %50, label %51

50:                                               ; preds = %45
  store ptr null, ptr %7, align 8
  store i32 1, ptr %16, align 4
  br label %70

51:                                               ; preds = %45
  %52 = load ptr, ptr %13, align 8, !tbaa !36
  %53 = icmp ne ptr %52, null
  br i1 %53, label %54, label %56

54:                                               ; preds = %51
  %55 = load ptr, ptr %13, align 8, !tbaa !36
  call void @WebPCopyDecBuffer(ptr noundef %15, ptr noundef %55)
  br label %56

56:                                               ; preds = %54, %51
  %57 = load i32, ptr %8, align 4, !tbaa !7
  %58 = call i32 @WebPIsRGBMode(i32 noundef %57)
  %59 = icmp ne i32 %58, 0
  br i1 %59, label %60, label %64

60:                                               ; preds = %56
  %61 = getelementptr inbounds nuw %struct.WebPDecBuffer, ptr %15, i32 0, i32 4
  %62 = getelementptr inbounds nuw %struct.WebPRGBABuffer, ptr %61, i32 0, i32 0
  %63 = load ptr, ptr %62, align 8, !tbaa !34
  br label %68

64:                                               ; preds = %56
  %65 = getelementptr inbounds nuw %struct.WebPDecBuffer, ptr %15, i32 0, i32 4
  %66 = getelementptr inbounds nuw %struct.WebPYUVABuffer, ptr %65, i32 0, i32 0
  %67 = load ptr, ptr %66, align 8, !tbaa !34
  br label %68

68:                                               ; preds = %64, %60
  %69 = phi ptr [ %63, %60 ], [ %67, %64 ]
  store ptr %69, ptr %7, align 8
  store i32 1, ptr %16, align 4
  br label %70

70:                                               ; preds = %68, %50, %30, %19
  call void @llvm.lifetime.end.p0(i64 120, ptr %15) #7
  call void @llvm.lifetime.end.p0(i64 112, ptr %14) #7
  %71 = load ptr, ptr %7, align 8
  ret ptr %71
}

; Function Attrs: nounwind uwtable
define ptr @WebPDecodeYUV(ptr noundef %0, i64 noundef %1, ptr noundef %2, ptr noundef %3, ptr noundef %4, ptr noundef %5, ptr noundef %6, ptr noundef %7) #0 {
  %9 = alloca ptr, align 8
  %10 = alloca ptr, align 8
  %11 = alloca i64, align 8
  %12 = alloca ptr, align 8
  %13 = alloca ptr, align 8
  %14 = alloca ptr, align 8
  %15 = alloca ptr, align 8
  %16 = alloca ptr, align 8
  %17 = alloca ptr, align 8
  %18 = alloca %struct.WebPDecBuffer, align 8
  %19 = alloca ptr, align 8
  %20 = alloca ptr, align 8
  store ptr %0, ptr %10, align 8, !tbaa !14
  store i64 %1, ptr %11, align 8, !tbaa !15
  store ptr %2, ptr %12, align 8, !tbaa !16
  store ptr %3, ptr %13, align 8, !tbaa !16
  store ptr %4, ptr %14, align 8, !tbaa !78
  store ptr %5, ptr %15, align 8, !tbaa !78
  store ptr %6, ptr %16, align 8, !tbaa !16
  store ptr %7, ptr %17, align 8, !tbaa !16
  %21 = load ptr, ptr %14, align 8, !tbaa !78
  %22 = icmp eq ptr %21, null
  br i1 %22, label %32, label %23

23:                                               ; preds = %8
  %24 = load ptr, ptr %15, align 8, !tbaa !78
  %25 = icmp eq ptr %24, null
  br i1 %25, label %32, label %26

26:                                               ; preds = %23
  %27 = load ptr, ptr %16, align 8, !tbaa !16
  %28 = icmp eq ptr %27, null
  br i1 %28, label %32, label %29

29:                                               ; preds = %26
  %30 = load ptr, ptr %17, align 8, !tbaa !16
  %31 = icmp eq ptr %30, null
  br i1 %31, label %32, label %33

32:                                               ; preds = %29, %26, %23, %8
  store ptr null, ptr %9, align 8
  br label %61

33:                                               ; preds = %29
  call void @llvm.lifetime.start.p0(i64 120, ptr %18) #7
  call void @llvm.lifetime.start.p0(i64 8, ptr %19) #7
  %34 = load ptr, ptr %10, align 8, !tbaa !14
  %35 = load i64, ptr %11, align 8, !tbaa !15
  %36 = load ptr, ptr %12, align 8, !tbaa !16
  %37 = load ptr, ptr %13, align 8, !tbaa !16
  %38 = call ptr @Decode(i32 noundef 11, ptr noundef %34, i64 noundef %35, ptr noundef %36, ptr noundef %37, ptr noundef %18)
  store ptr %38, ptr %19, align 8, !tbaa !14
  %39 = load ptr, ptr %19, align 8, !tbaa !14
  %40 = icmp ne ptr %39, null
  br i1 %40, label %41, label %59

41:                                               ; preds = %33
  call void @llvm.lifetime.start.p0(i64 8, ptr %20) #7
  %42 = getelementptr inbounds nuw %struct.WebPDecBuffer, ptr %18, i32 0, i32 4
  store ptr %42, ptr %20, align 8, !tbaa !80
  %43 = load ptr, ptr %20, align 8, !tbaa !80
  %44 = getelementptr inbounds nuw %struct.WebPYUVABuffer, ptr %43, i32 0, i32 1
  %45 = load ptr, ptr %44, align 8, !tbaa !82
  %46 = load ptr, ptr %14, align 8, !tbaa !78
  store ptr %45, ptr %46, align 8, !tbaa !14
  %47 = load ptr, ptr %20, align 8, !tbaa !80
  %48 = getelementptr inbounds nuw %struct.WebPYUVABuffer, ptr %47, i32 0, i32 2
  %49 = load ptr, ptr %48, align 8, !tbaa !84
  %50 = load ptr, ptr %15, align 8, !tbaa !78
  store ptr %49, ptr %50, align 8, !tbaa !14
  %51 = load ptr, ptr %20, align 8, !tbaa !80
  %52 = getelementptr inbounds nuw %struct.WebPYUVABuffer, ptr %51, i32 0, i32 4
  %53 = load i32, ptr %52, align 8, !tbaa !85
  %54 = load ptr, ptr %16, align 8, !tbaa !16
  store i32 %53, ptr %54, align 4, !tbaa !7
  %55 = load ptr, ptr %20, align 8, !tbaa !80
  %56 = getelementptr inbounds nuw %struct.WebPYUVABuffer, ptr %55, i32 0, i32 5
  %57 = load i32, ptr %56, align 4, !tbaa !86
  %58 = load ptr, ptr %17, align 8, !tbaa !16
  store i32 %57, ptr %58, align 4, !tbaa !7
  call void @llvm.lifetime.end.p0(i64 8, ptr %20) #7
  br label %59

59:                                               ; preds = %41, %33
  %60 = load ptr, ptr %19, align 8, !tbaa !14
  store ptr %60, ptr %9, align 8
  call void @llvm.lifetime.end.p0(i64 8, ptr %19) #7
  call void @llvm.lifetime.end.p0(i64 120, ptr %18) #7
  br label %61

61:                                               ; preds = %59, %32
  %62 = load ptr, ptr %9, align 8
  ret ptr %62
}