; Function Attrs: nounwind uwtable
define ptr @WebPDecodeYUV(ptr noundef %0, i64 noundef %1, ptr noundef writeonly captures(address_is_null) %2, ptr noundef writeonly captures(address_is_null) %3, ptr noundef writeonly captures(address_is_null) %4, ptr noundef writeonly captures(address_is_null) %5, ptr noundef writeonly captures(address_is_null) %6, ptr noundef writeonly captures(address_is_null) %7) local_unnamed_addr #0 {
  %9 = alloca %struct.WebPBitstreamFeatures, align 4
  %10 = alloca %struct.WebPDecParams, align 8
  %11 = alloca %struct.WebPDecBuffer, align 8
  %12 = alloca %struct.WebPDecBuffer, align 8
  %13 = icmp eq ptr %4, null
  %14 = icmp eq ptr %5, null
  %or.cond = or i1 %13, %14
  %15 = icmp eq ptr %6, null
  %or.cond3 = or i1 %or.cond, %15
  %16 = icmp eq ptr %7, null
  %or.cond5 = or i1 %or.cond3, %16
  br i1 %or.cond5, label %49, label %17

17:                                               ; preds = %8
  call void @llvm.lifetime.start.p0(i64 120, ptr nonnull %12) #10
  call void @llvm.lifetime.start.p0(i64 112, ptr nonnull %10) #10
  call void @llvm.lifetime.start.p0(i64 120, ptr nonnull %11) #10
  %18 = call i32 @WebPInitDecBufferInternal(ptr noundef nonnull %11, i32 noundef 528) #10
  %.not.i = icmp eq i32 %18, 0
  br i1 %.not.i, label %Decode.exit.thread, label %19

19:                                               ; preds = %17
  %20 = getelementptr inbounds nuw i8, ptr %10, i64 8
  call void @llvm.memset.p0.i64(ptr noundef nonnull align 8 dereferenceable(112) %20, i8 0, i64 104, i1 false)
  store ptr %11, ptr %10, align 8, !tbaa !23
  store i32 11, ptr %11, align 8, !tbaa !28
  %21 = getelementptr inbounds nuw i8, ptr %11, i64 4
  %22 = getelementptr inbounds nuw i8, ptr %11, i64 8
  call void @llvm.lifetime.start.p0(i64 40, ptr nonnull %9) #10
  %23 = icmp eq ptr %0, null
  br i1 %23, label %WebPGetInfo.exit.thread.i, label %GetFeatures.exit.i.i

GetFeatures.exit.i.i:                             ; preds = %19
  call void @llvm.memset.p0.i64(ptr noundef nonnull align 4 dereferenceable(40) %9, i8 0, i64 40, i1 false)
  %24 = getelementptr inbounds nuw i8, ptr %9, i64 4
  %25 = getelementptr inbounds nuw i8, ptr %9, i64 8
  %26 = getelementptr inbounds nuw i8, ptr %9, i64 12
  %27 = getelementptr inbounds nuw i8, ptr %9, i64 16
  %28 = call fastcc i32 @ParseHeadersInternal(ptr noundef nonnull %0, i64 noundef %1, ptr noundef nonnull %9, ptr noundef nonnull %24, ptr noundef nonnull %25, ptr noundef %26, ptr noundef nonnull %27, ptr noundef null)
  %.not.i.i = icmp eq i32 %28, 0
  br i1 %.not.i.i, label %29, label %WebPGetInfo.exit.thread.i

WebPGetInfo.exit.thread.i:                        ; preds = %GetFeatures.exit.i.i, %19
  call void @llvm.lifetime.end.p0(i64 40, ptr nonnull %9) #10
  br label %Decode.exit.thread

29:                                               ; preds = %GetFeatures.exit.i.i
  %30 = load i32, ptr %9, align 4, !tbaa !67
  store i32 %30, ptr %21, align 4, !tbaa !3
  %31 = load i32, ptr %24, align 4, !tbaa !69
  store i32 %31, ptr %22, align 8, !tbaa !3
  call void @llvm.lifetime.end.p0(i64 40, ptr nonnull %9) #10
  %.not16.i = icmp eq ptr %2, null
  br i1 %.not16.i, label %33, label %32

32:                                               ; preds = %29
  store i32 %30, ptr %2, align 4, !tbaa !3
  br label %33

33:                                               ; preds = %32, %29
  %.not17.i = icmp eq ptr %3, null
  br i1 %.not17.i, label %35, label %34

34:                                               ; preds = %33
  store i32 %31, ptr %3, align 4, !tbaa !3
  br label %35

35:                                               ; preds = %34, %33
  %36 = call fastcc i32 @DecodeInto(ptr noundef nonnull %0, i64 noundef %1, ptr noundef %10)
  %.not18.i = icmp eq i32 %36, 0
  br i1 %.not18.i, label %Decode.exit, label %Decode.exit.thread

Decode.exit.thread:                               ; preds = %17, %35, %WebPGetInfo.exit.thread.i
  call void @llvm.lifetime.end.p0(i64 120, ptr nonnull %11) #10
  call void @llvm.lifetime.end.p0(i64 112, ptr nonnull %10) #10
  br label %48

Decode.exit:                                      ; preds = %35
  call void @WebPCopyDecBuffer(ptr noundef nonnull %11, ptr noundef nonnull %12) #10
  %37 = getelementptr inbounds nuw i8, ptr %11, i64 16
  %38 = load ptr, ptr %37, align 8
  call void @llvm.lifetime.end.p0(i64 120, ptr nonnull %11) #10
  call void @llvm.lifetime.end.p0(i64 112, ptr nonnull %10) #10
  %.not = icmp eq ptr %38, null
  br i1 %.not, label %48, label %39

39:                                               ; preds = %Decode.exit
  %40 = getelementptr inbounds nuw i8, ptr %12, i64 24
  %41 = load ptr, ptr %40, align 8, !tbaa !70
  store ptr %41, ptr %4, align 8, !tbaa !13
  %42 = getelementptr inbounds nuw i8, ptr %12, i64 32
  %43 = load ptr, ptr %42, align 8, !tbaa !72
  store ptr %43, ptr %5, align 8, !tbaa !13
  %44 = getelementptr inbounds nuw i8, ptr %12, i64 48
  %45 = load i32, ptr %44, align 8, !tbaa !73
  store i32 %45, ptr %6, align 4, !tbaa !3
  %46 = getelementptr inbounds nuw i8, ptr %12, i64 52
  %47 = load i32, ptr %46, align 4, !tbaa !74
  store i32 %47, ptr %7, align 4, !tbaa !3
  br label %48

48:                                               ; preds = %Decode.exit.thread, %39, %Decode.exit
  %.0.i29 = phi ptr [ null, %Decode.exit.thread ], [ %38, %39 ], [ null, %Decode.exit ]
  call void @llvm.lifetime.end.p0(i64 120, ptr nonnull %12) #10
  br label %49

49:                                               ; preds = %8, %48
  %.0 = phi ptr [ %.0.i29, %48 ], [ null, %8 ]
  ret ptr %.0
}